; Function Attrs: mustprogress uwtable
define dso_local void @_ZN4Json4Path12addPathInArgERKNSt7__cxx1112basic_stringIcSt11char_traitsIcESaIcEEERKSt6vectorIPKNS_12PathArgumentESaISC_EERN9__gnu_cxx17__normal_iteratorIPKSC_SE_EENSA_4KindE(ptr noundef nonnull align 8 dereferenceable(24) %0, ptr nocapture noundef nonnull readnone align 8 dereferenceable(32) %1, ptr nocapture noundef nonnull readonly align 8 dereferenceable(24) %2, ptr nocapture noundef nonnull readonly align 8 dereferenceable(8) %3, i32 noundef %4) local_unnamed_addr #2 align 2 {
  %6 = getelementptr inbounds i8, ptr %2, i64 8
  %7 = load ptr, ptr %6, align 8
  %8 = load ptr, ptr %3, align 8
  %9 = icmp eq ptr %8, %7
  br i1 %9, label %_ZNSt6vectorIN4Json12PathArgumentESaIS1_EE9push_backERKS1_.exit, label %10

10:                                               ; preds = %5
  %11 = load ptr, ptr %8, align 8
  %12 = getelementptr inbounds i8, ptr %11, i64 36
  %13 = load i32, ptr %12, align 4
  %.not = icmp eq i32 %13, %4
  br i1 %.not, label %14, label %_ZNSt6vectorIN4Json12PathArgumentESaIS1_EE9push_backERKS1_.exit

14:                                               ; preds = %10
  %15 = getelementptr inbounds i8, ptr %0, i64 8
  %16 = load ptr, ptr %15, align 8
  %17 = getelementptr inbounds i8, ptr %0, i64 16
  %18 = load ptr, ptr %17, align 8
  %.not.i = icmp eq ptr %16, %18
  br i1 %.not.i, label %25, label %19

19:                                               ; preds = %14
  tail call void @_ZNSt7__cxx1112basic_stringIcSt11char_traitsIcESaIcEEC1ERKS4_(ptr noundef nonnull align 8 dereferenceable(32) %16, ptr noundef nonnull align 8 dereferenceable(32) %11)
  %20 = getelementptr inbounds i8, ptr %16, i64 32
  %21 = getelementptr inbounds i8, ptr %11, i64 32
  %22 = load i64, ptr %21, align 8
  store i64 %22, ptr %20, align 8
  %23 = load ptr, ptr %15, align 8
  %24 = getelementptr inbounds i8, ptr %23, i64 40
  store ptr %24, ptr %15, align 8
  br label %_ZNSt6vectorIN4Json12PathArgumentESaIS1_EE9push_backERKS1_.exit

25:                                               ; preds = %14
  tail call void @_ZNSt6vectorIN4Json12PathArgumentESaIS1_EE17_M_realloc_insertIJRKS1_EEEvN9__gnu_cxx17__normal_iteratorIPS1_S3_EEDpOT_(ptr noundef nonnull align 8 dereferenceable(24) %0, ptr %16, ptr noundef nonnull align 8 dereferenceable(40) %11)
  br label %_ZNSt6vectorIN4Json12PathArgumentESaIS1_EE9push_backERKS1_.exit

_ZNSt6vectorIN4Json12PathArgumentESaIS1_EE9push_backERKS1_.exit: ; preds = %25, %19, %10, %5
  ret void
}